; ModuleID = '54/1182.cpp'
source_filename = "54/1182.cpp"
target datalayout = "e-m:e-p270:32:32-p271:32:32-p272:64:64-i64:64-f80:128-n8:16:32:64-S128"
target triple = "x86_64-pc-linux-gnu"

%"class.std::ios_base::Init" = type { i8 }
%"class.std::basic_istream" = type { i32 (...)**, i64, %"class.std::basic_ios" }
%"class.std::basic_ios" = type { %"class.std::ios_base", %"class.std::basic_ostream"*, i8, i8, %"class.std::basic_streambuf"*, %"class.std::ctype"*, %"class.std::num_put"*, %"class.std::num_get"* }
%"class.std::ios_base" = type { i32 (...)**, i64, i64, i32, i32, i32, %"struct.std::ios_base::_Callback_list"*, %"struct.std::ios_base::_Words", [8 x %"struct.std::ios_base::_Words"], i32, %"struct.std::ios_base::_Words"*, %"class.std::locale" }
%"struct.std::ios_base::_Callback_list" = type { %"struct.std::ios_base::_Callback_list"*, void (i32, %"class.std::ios_base"*, i32)*, i32, i32 }
%"struct.std::ios_base::_Words" = type { i8*, i64 }
%"class.std::locale" = type { %"class.std::locale::_Impl"* }
%"class.std::locale::_Impl" = type { i32, %"class.std::locale::facet"**, i64, %"class.std::locale::facet"**, i8** }
%"class.std::locale::facet" = type <{ i32 (...)**, i32, [4 x i8] }>
%"class.std::basic_ostream" = type { i32 (...)**, %"class.std::basic_ios" }
%"class.std::basic_streambuf" = type { i32 (...)**, i8*, i8*, i8*, i8*, i8*, i8*, %"class.std::locale" }
%"class.std::ctype" = type <{ %"class.std::locale::facet.base", [4 x i8], %struct.__locale_struct*, i8, [7 x i8], i32*, i32*, i16*, i8, [256 x i8], [256 x i8], i8, [6 x i8] }>
%"class.std::locale::facet.base" = type <{ i32 (...)**, i32 }>
%struct.__locale_struct = type { [13 x %struct.__locale_data*], i16*, i32*, i32*, [13 x i8*] }
%struct.__locale_data = type opaque
%"class.std::num_put" = type { %"class.std::locale::facet.base", [4 x i8] }
%"class.std::num_get" = type { %"class.std::locale::facet.base", [4 x i8] }

@_ZStL8__ioinit = internal global %"class.std::ios_base::Init" zeroinitializer, align 1
@__dso_handle = external hidden global i8
@_ZSt3cin = external dso_local global %"class.std::basic_istream", align 8
@_ZSt4cout = external dso_local global %"class.std::basic_ostream", align 8
@llvm.global_ctors = appending global [1 x { i32, void ()*, i8* }] [{ i32, void ()*, i8* } { i32 65535, void ()* @_GLOBAL__sub_I_1182.cpp, i8* null }]

; Function Attrs: noinline uwtable
define internal void @__cxx_global_var_init() #0 section ".text.startup" {
  call void @_ZNSt8ios_base4InitC1Ev(%"class.std::ios_base::Init"* @_ZStL8__ioinit)
  %1 = call i32 @__cxa_atexit(void (i8*)* bitcast (void (%"class.std::ios_base::Init"*)* @_ZNSt8ios_base4InitD1Ev to void (i8*)*), i8* getelementptr inbounds (%"class.std::ios_base::Init", %"class.std::ios_base::Init"* @_ZStL8__ioinit, i32 0, i32 0), i8* @__dso_handle) #3
  ret void
}

declare dso_local void @_ZNSt8ios_base4InitC1Ev(%"class.std::ios_base::Init"*) unnamed_addr #1

; Function Attrs: nounwind
declare dso_local void @_ZNSt8ios_base4InitD1Ev(%"class.std::ios_base::Init"*) unnamed_addr #2

; Function Attrs: nounwind
declare dso_local i32 @__cxa_atexit(void (i8*)*, i8*, i8*) #3

; Function Attrs: noinline norecurse uwtable
define dso_local i32 @main() #4 {
  %1 = alloca i32, align 4
  %2 = alloca double, align 8
  %3 = alloca double, align 8
  %4 = alloca double, align 8
  %5 = alloca double, align 8
  %6 = alloca [1000 x i32], align 16
  %7 = alloca i32, align 4
  %8 = alloca double, align 8
  %9 = alloca i32, align 4
  %10 = alloca i32, align 4
  %11 = alloca i32, align 4
  %12 = alloca i32, align 4
  store i32 0, i32* %1, align 4
  %13 = call dereferenceable(280) %"class.std::basic_istream"* @_ZNSirsERd(%"class.std::basic_istream"* @_ZSt3cin, double* dereferenceable(8) %2)
  %14 = call dereferenceable(280) %"class.std::basic_istream"* @_ZNSirsERd(%"class.std::basic_istream"* %13, double* dereferenceable(8) %3)
  store double 0.000000e+00, double* %4, align 8
  store i32 0, i32* %7, align 4
  store double 1.000000e+00, double* %8, align 8
  br label %15

15:                                               ; preds = %64, %0
  %16 = load double, double* %8, align 8
  %17 = fcmp olt double %16, 1.000000e+07
  br i1 %17, label %18, label %67

18:                                               ; preds = %15
  store i32 1, i32* %9, align 4
  %19 = load double, double* %8, align 8
  store double %19, double* %5, align 8
  store i32 0, i32* %10, align 4
  br label %20

20:                                               ; preds = %49, %18
  %21 = load i32, i32* %10, align 4
  %22 = sitofp i32 %21 to double
  %23 = load double, double* %2, align 8
  %24 = fcmp olt double %22, %23
  br i1 %24, label %25, label %52

25:                                               ; preds = %20
  %26 = load double, double* %2, align 8
  %27 = load double, double* %5, align 8
  %28 = fmul double %26, %27
  %29 = load double, double* %3, align 8
  %30 = fadd double %28, %29
  store double %30, double* %4, align 8
  %31 = load double, double* %4, align 8
  %32 = load double, double* %2, align 8
  %33 = fsub double %32, 1.000000e+00
  %34 = fdiv double %31, %33
  store double %34, double* %5, align 8
  %35 = load double, double* %5, align 8
  %36 = load double, double* %5, align 8
  %37 = fptosi double %36 to i32
  %38 = sitofp i32 %37 to double
  %39 = fsub double %35, %38
  %40 = fcmp une double %39, 0.000000e+00
  br i1 %40, label %41, label %48

41:                                               ; preds = %25
  %42 = load i32, i32* %10, align 4
  %43 = sitofp i32 %42 to double
  %44 = load double, double* %2, align 8
  %45 = fsub double %44, 1.000000e+00
  %46 = fcmp une double %43, %45
  br i1 %46, label %47, label %48

47:                                               ; preds = %41
  store i32 0, i32* %9, align 4
  br label %52

48:                                               ; preds = %41, %25
  br label %49

49:                                               ; preds = %48
  %50 = load i32, i32* %10, align 4
  %51 = add nsw i32 %50, 1
  store i32 %51, i32* %10, align 4
  br label %20

52:                                               ; preds = %47, %20
  %53 = load i32, i32* %9, align 4
  %54 = icmp eq i32 %53, 1
  br i1 %54, label %55, label %63

55:                                               ; preds = %52
  %56 = load double, double* %4, align 8
  %57 = fptosi double %56 to i32
  %58 = load i32, i32* %7, align 4
  %59 = sext i32 %58 to i64
  %60 = getelementptr inbounds [1000 x i32], [1000 x i32]* %6, i64 0, i64 %59
  store i32 %57, i32* %60, align 4
  %61 = load i32, i32* %7, align 4
  %62 = add nsw i32 %61, 1
  store i32 %62, i32* %7, align 4
  br label %63

63:                                               ; preds = %55, %52
  store double 0.000000e+00, double* %4, align 8
  br label %64

64:                                               ; preds = %63
  %65 = load double, double* %8, align 8
  %66 = fadd double %65, 1.000000e+00
  store double %66, double* %8, align 8
  br label %15

67:                                               ; preds = %15
  %68 = getelementptr inbounds [1000 x i32], [1000 x i32]* %6, i64 0, i64 0
  %69 = load i32, i32* %68, align 16
  store i32 %69, i32* %11, align 4
  store i32 0, i32* %12, align 4
  br label %70

70:                                               ; preds = %87, %67
  %71 = load i32, i32* %12, align 4
  %72 = load i32, i32* %7, align 4
  %73 = icmp slt i32 %71, %72
  br i1 %73, label %74, label %90

74:                                               ; preds = %70
  %75 = load i32, i32* %12, align 4
  %76 = sext i32 %75 to i64
  %77 = getelementptr inbounds [1000 x i32], [1000 x i32]* %6, i64 0, i64 %76
  %78 = load i32, i32* %77, align 4
  %79 = load i32, i32* %11, align 4
  %80 = icmp slt i32 %78, %79
  br i1 %80, label %81, label %86

81:                                               ; preds = %74
  %82 = load i32, i32* %12, align 4
  %83 = sext i32 %82 to i64
  %84 = getelementptr inbounds [1000 x i32], [1000 x i32]* %6, i64 0, i64 %83
  %85 = load i32, i32* %84, align 4
  store i32 %85, i32* %11, align 4
  br label %86

86:                                               ; preds = %81, %74
  br label %87

87:                                               ; preds = %86
  %88 = load i32, i32* %12, align 4
  %89 = add nsw i32 %88, 1
  store i32 %89, i32* %12, align 4
  br label %70

90:                                               ; preds = %70
  %91 = load i32, i32* %11, align 4
  %92 = call dereferenceable(272) %"class.std::basic_ostream"* @_ZNSolsEi(%"class.std::basic_ostream"* @_ZSt4cout, i32 %91)
  %93 = load i32, i32* %1, align 4
  ret i32 %93
}

declare dso_local dereferenceable(280) %"class.std::basic_istream"* @_ZNSirsERd(%"class.std::basic_istream"*, double* dereferenceable(8)) #1

declare dso_local dereferenceable(272) %"class.std::basic_ostream"* @_ZNSolsEi(%"class.std::basic_ostream"*, i32) #1

; Function Attrs: noinline uwtable
define internal void @_GLOBAL__sub_I_1182.cpp() #0 section ".text.startup" {
  call void @__cxx_global_var_init()
  ret void
}


!llvm.module.flags = !{!0}
!llvm.ident = !{!1}

!0 = !{i32 1, !"wchar_size", i32 4}
!1 = !{!"clang version 10.0.0-4ubuntu1 "}
